target datalayout = "e-m:e-p270:32:32-p271:32:32-p272:64:64-i64:64-i128:128-f80:128-n8:16:32:64-S128"
target triple = "x86_64-pc-linux-gnu"

; Function Attrs: nounwind uwtable
define i32 @cli_isutf8(ptr noundef %0, i32 noundef %1) #0 {
  %3 = alloca i32, align 4
  %4 = alloca ptr, align 8
  %5 = alloca i32, align 4
  %6 = alloca i32, align 4
  %7 = alloca i32, align 4
  %8 = alloca i32, align 4
  store ptr %0, ptr %4, align 8
  store i32 %1, ptr %5, align 4
  store i32 0, ptr %6, align 4
  br label %9

9:                                                ; preds = %125, %2
  %10 = load i32, ptr %6, align 4
  %11 = load i32, ptr %5, align 4
  %12 = icmp ult i32 %10, %11
  br i1 %12, label %13, label %128

13:                                               ; preds = %9
  %14 = load ptr, ptr %4, align 8
  %15 = load i32, ptr %6, align 4
  %16 = zext i32 %15 to i64
  %17 = getelementptr inbounds i8, ptr %14, i64 %16
  %18 = load i8, ptr %17, align 1
  %19 = sext i8 %18 to i32
  %20 = and i32 %19, 128
  %21 = icmp eq i32 %20, 0
  br i1 %21, label %22, label %23

22:                                               ; preds = %13
  br label %125

23:                                               ; preds = %13
  %24 = load ptr, ptr %4, align 8
  %25 = load i32, ptr %6, align 4
  %26 = zext i32 %25 to i64
  %27 = getelementptr inbounds i8, ptr %24, i64 %26
  %28 = load i8, ptr %27, align 1
  %29 = sext i8 %28 to i32
  %30 = and i32 %29, 64
  %31 = icmp eq i32 %30, 0
  br i1 %31, label %32, label %33

32:                                               ; preds = %23
  store i32 0, ptr %3, align 4
  br label %129

33:                                               ; preds = %23
  %34 = load ptr, ptr %4, align 8
  %35 = load i32, ptr %6, align 4
  %36 = zext i32 %35 to i64
  %37 = getelementptr inbounds i8, ptr %34, i64 %36
  %38 = load i8, ptr %37, align 1
  %39 = sext i8 %38 to i32
  %40 = and i32 %39, 32
  %41 = icmp eq i32 %40, 0
  br i1 %41, label %42, label %43

42:                                               ; preds = %33
  store i32 1, ptr %8, align 4
  br label %88

43:                                               ; preds = %33
  %44 = load ptr, ptr %4, align 8
  %45 = load i32, ptr %6, align 4
  %46 = zext i32 %45 to i64
  %47 = getelementptr inbounds i8, ptr %44, i64 %46
  %48 = load i8, ptr %47, align 1
  %49 = sext i8 %48 to i32
  %50 = and i32 %49, 16
  %51 = icmp eq i32 %50, 0
  br i1 %51, label %52, label %53

52:                                               ; preds = %43
  store i32 2, ptr %8, align 4
  br label %87

53:                                               ; preds = %43
  %54 = load ptr, ptr %4, align 8
  %55 = load i32, ptr %6, align 4
  %56 = zext i32 %55 to i64
  %57 = getelementptr inbounds i8, ptr %54, i64 %56
  %58 = load i8, ptr %57, align 1
  %59 = sext i8 %58 to i32
  %60 = and i32 %59, 8
  %61 = icmp eq i32 %60, 0
  br i1 %61, label %62, label %63

62:                                               ; preds = %53
  store i32 3, ptr %8, align 4
  br label %86

63:                                               ; preds = %53
  %64 = load ptr, ptr %4, align 8
  %65 = load i32, ptr %6, align 4
  %66 = zext i32 %65 to i64
  %67 = getelementptr inbounds i8, ptr %64, i64 %66
  %68 = load i8, ptr %67, align 1
  %69 = sext i8 %68 to i32
  %70 = and i32 %69, 4
  %71 = icmp eq i32 %70, 0
  br i1 %71, label %72, label %73

72:                                               ; preds = %63
  store i32 4, ptr %8, align 4
  br label %85

73:                                               ; preds = %63
  %74 = load ptr, ptr %4, align 8
  %75 = load i32, ptr %6, align 4
  %76 = zext i32 %75 to i64
  %77 = getelementptr inbounds i8, ptr %74, i64 %76
  %78 = load i8, ptr %77, align 1
  %79 = sext i8 %78 to i32
  %80 = and i32 %79, 2
  %81 = icmp eq i32 %80, 0
  br i1 %81, label %82, label %83

82:                                               ; preds = %73
  store i32 5, ptr %8, align 4
  br label %84

83:                                               ; preds = %73
  store i32 0, ptr %3, align 4
  br label %129

84:                                               ; preds = %82
  br label %85

85:                                               ; preds = %84, %72
  br label %86

86:                                               ; preds = %85, %62
  br label %87

87:                                               ; preds = %86, %52
  br label %88

88:                                               ; preds = %87, %42
  store i32 0, ptr %7, align 4
  br label %89

89:                                               ; preds = %119, %88
  %90 = load i32, ptr %7, align 4
  %91 = load i32, ptr %8, align 4
  %92 = icmp ult i32 %90, %91
  br i1 %92, label %93, label %122

93:                                               ; preds = %89
  %94 = load i32, ptr %6, align 4
  %95 = add i32 %94, 1
  store i32 %95, ptr %6, align 4
  %96 = load i32, ptr %5, align 4
  %97 = icmp uge i32 %95, %96
  br i1 %97, label %98, label %99

98:                                               ; preds = %93
  store i32 0, ptr %3, align 4
  br label %129

99:                                               ; preds = %93
  %100 = load ptr, ptr %4, align 8
  %101 = load i32, ptr %6, align 4
  %102 = zext i32 %101 to i64
  %103 = getelementptr inbounds i8, ptr %100, i64 %102
  %104 = load i8, ptr %103, align 1
  %105 = sext i8 %104 to i32
  %106 = and i32 %105, 128
  %107 = icmp eq i32 %106, 0
  br i1 %107, label %117, label %108

108:                                              ; preds = %99
  %109 = load ptr, ptr %4, align 8
  %110 = load i32, ptr %6, align 4
  %111 = zext i32 %110 to i64
  %112 = getelementptr inbounds i8, ptr %109, i64 %111
  %113 = load i8, ptr %112, align 1
  %114 = sext i8 %113 to i32
  %115 = and i32 %114, 64
  %116 = icmp ne i32 %115, 0
  br i1 %116, label %117, label %118

117:                                              ; preds = %108, %99
  store i32 0, ptr %3, align 4
  br label %129

118:                                              ; preds = %108
  br label %119

119:                                              ; preds = %118
  %120 = load i32, ptr %7, align 4
  %121 = add i32 %120, 1
  store i32 %121, ptr %7, align 4
  br label %89

122:                                              ; preds = %89
  br label %123

123:                                              ; preds = %122
  br label %124

124:                                              ; preds = %123
  br label %125

125:                                              ; preds = %124, %22
  %126 = load i32, ptr %6, align 4
  %127 = add i32 %126, 1
  store i32 %127, ptr %6, align 4
  br label %9

128:                                              ; preds = %9
  store i32 1, ptr %3, align 4
  br label %129

129:                                              ; preds = %128, %117, %98, %83, %32
  %130 = load i32, ptr %3, align 4
  ret i32 %130
}