; Function Attrs: nofree norecurse nosync nounwind memory(argmem: read) uwtable
define noundef i32 @cli_isutf8(ptr nocapture noundef readonly %0, i32 noundef %1) local_unnamed_addr #6 {
  %.not42 = icmp eq i32 %1, 0
  br i1 %.not42, label %.loopexit32, label %.lr.ph

.lr.ph:                                           ; preds = %2, %.loopexit
  %.02737 = phi i32 [ %36, %.loopexit ], [ 0, %2 ]
  %3 = zext i32 %.02737 to i64
  %4 = getelementptr inbounds i8, ptr %0, i64 %3
  %5 = load i8, ptr %4, align 1
  %6 = zext i8 %5 to i32
  %7 = icmp sgt i8 %5, -1
  br i1 %7, label %.loopexit, label %8

8:                                                ; preds = %.lr.ph
  %9 = and i32 %6, 64
  %10 = icmp eq i32 %9, 0
  br i1 %10, label %.loopexit32, label %11

11:                                               ; preds = %8
  %12 = and i32 %6, 32
  %13 = icmp eq i32 %12, 0
  br i1 %13, label %26, label %14

14:                                               ; preds = %11
  %15 = and i32 %6, 16
  %16 = icmp eq i32 %15, 0
  br i1 %16, label %26, label %17

17:                                               ; preds = %14
  %18 = and i32 %6, 8
  %19 = icmp eq i32 %18, 0
  br i1 %19, label %26, label %20

20:                                               ; preds = %17
  %21 = and i32 %6, 4
  %22 = icmp eq i32 %21, 0
  br i1 %22, label %26, label %23

23:                                               ; preds = %20
  %24 = and i32 %6, 2
  %25 = icmp eq i32 %24, 0
  br i1 %25, label %26, label %.loopexit32

26:                                               ; preds = %23, %20, %17, %14, %11
  %.0 = phi i32 [ 1, %11 ], [ 2, %14 ], [ 3, %17 ], [ 4, %20 ], [ 5, %23 ]
  %27 = add i32 %.0, %.02737
  br label %29

28:                                               ; preds = %31
  %exitcond.not = icmp eq i32 %30, %27
  br i1 %exitcond.not, label %.loopexit, label %29

29:                                               ; preds = %26, %28
  %.135 = phi i32 [ %.02737, %26 ], [ %30, %28 ]
  %30 = add nuw i32 %.135, 1
  %.not = icmp ult i32 %30, %1
  br i1 %.not, label %31, label %.loopexit32

31:                                               ; preds = %29
  %32 = zext i32 %30 to i64
  %33 = getelementptr inbounds i8, ptr %0, i64 %32
  %34 = load i8, ptr %33, align 1
  %35 = and i8 %34, -64
  %or.cond = icmp eq i8 %35, -128
  br i1 %or.cond, label %28, label %.loopexit32

.loopexit:                                        ; preds = %28, %.lr.ph
  %.2 = phi i32 [ %.02737, %.lr.ph ], [ %27, %28 ]
  %36 = add i32 %.2, 1
  %37 = icmp ult i32 %36, %1
  br i1 %37, label %.lr.ph, label %.loopexit32

.loopexit32:                                      ; preds = %8, %23, %.loopexit, %31, %29, %2
  %.028 = phi i32 [ 1, %2 ], [ 0, %29 ], [ 0, %31 ], [ 0, %8 ], [ 0, %23 ], [ 1, %.loopexit ]
  ret i32 %.028
}